; Function Attrs: mustprogress uwtable
define void @_ZN32pxrInternal_v0_24__pxrReserved__26SdfNamespaceEdit_Namespace13_AddDeadspaceERKNS_7SdfPathE(ptr noundef nonnull align 8 dereferenceable(144) %0, ptr noundef nonnull align 4 dereferenceable(8) %1) local_unnamed_addr #0 align 2 {
  %3 = alloca %"class.pxrInternal_v0_24__pxrReserved__::TfCallContext", align 8
  %4 = tail call noundef nonnull align 4 dereferenceable(8) ptr @_ZN32pxrInternal_v0_24__pxrReserved__7SdfPath16AbsoluteRootPathEv()
  %.0.copyload.i.i.i = load i64, ptr %1, align 4
  %.0.copyload.i2.i.i = load i64, ptr %4, align 4
  %.not = icmp eq i64 %.0.copyload.i.i.i, %.0.copyload.i2.i.i
  br i1 %.not, label %5, label %.critedge

5:                                                ; preds = %2
  store ptr @.str.2, ptr %3, align 8
  %6 = getelementptr inbounds nuw i8, ptr %3, i64 8
  store ptr @__func__._ZN32pxrInternal_v0_24__pxrReserved__26SdfNamespaceEdit_Namespace13_AddDeadspaceERKNS_7SdfPathE, ptr %6, align 8
  %7 = getelementptr inbounds nuw i8, ptr %3, i64 16
  store i64 628, ptr %7, align 8
  %8 = getelementptr inbounds nuw i8, ptr %3, i64 24
  store ptr @__PRETTY_FUNCTION__._ZN32pxrInternal_v0_24__pxrReserved__26SdfNamespaceEdit_Namespace13_AddDeadspaceERKNS_7SdfPathE, ptr %8, align 8
  %9 = getelementptr inbounds nuw i8, ptr %3, i64 32
  store i8 0, ptr %9, align 8
  %10 = call noundef zeroext i1 @_ZN32pxrInternal_v0_24__pxrReserved__21Tf_FailedVerifyHelperERKNS_13TfCallContextEPKcS4_(ptr noundef nonnull align 8 dereferenceable(33) %3, ptr noundef nonnull @.str.22, ptr noundef null)
  br i1 %10, label %.critedge, label %13

.critedge:                                        ; preds = %2, %5
  %11 = getelementptr inbounds nuw i8, ptr %0, i64 48
  %12 = call { ptr, i8 } @_ZNSt8_Rb_treeIN32pxrInternal_v0_24__pxrReserved__7SdfPathES1_St9_IdentityIS1_ESt4lessIS1_ESaIS1_EE16_M_insert_uniqueIRKS1_EESt4pairISt17_Rb_tree_iteratorIS1_EbEOT_(ptr noundef nonnull align 8 dereferenceable(48) %11, ptr noundef nonnull align 4 dereferenceable(8) %1)
  br label %13

13:                                               ; preds = %5, %.critedge
  ret void
}